; Function Attrs: nounwind uwtable
define ptr @l_Lake_rpad(ptr noundef %0, i32 noundef %1, ptr noundef %2) local_unnamed_addr #0 {
  %4 = getelementptr i8, ptr %0, i64 24
  %.val = load i64, ptr %4, align 8, !tbaa !11
  %5 = ptrtoint ptr %2 to i64
  %6 = and i64 %5, 1
  %.not = icmp eq i64 %6, 0
  br i1 %.not, label %.critedge.i, label %7, !prof !4

7:                                                ; preds = %3
  %8 = lshr i64 %5, 1
  %9 = and i64 %.val, 9223372036854775807
  %10 = icmp samesign ult i64 %8, %9
  br i1 %10, label %lean_dec.exit, label %11

11:                                               ; preds = %7
  %12 = sub nuw nsw i64 %8, %9
  %13 = shl nuw i64 %12, 1
  %14 = or disjoint i64 %13, 1
  %15 = inttoptr i64 %14 to ptr
  br label %lean_dec.exit

.critedge.i:                                      ; preds = %3
  %16 = shl i64 %.val, 1
  %17 = or disjoint i64 %16, 1
  %18 = inttoptr i64 %17 to ptr
  %19 = tail call ptr @lean_nat_big_sub(ptr noundef %2, ptr noundef nonnull %18) #3
  br label %lean_dec.exit

lean_dec.exit:                                    ; preds = %.critedge.i, %11, %7
  %.1.i = phi ptr [ %19, %.critedge.i ], [ %15, %11 ], [ inttoptr (i64 1 to ptr), %7 ]
  %20 = tail call ptr @l_Nat_repeatTR_loop___at_Lake_rpad___spec__1(i32 noundef %1, ptr noundef %.1.i, ptr noundef nonnull %0)
  ret ptr %20
}